target datalayout = "e-m:e-p270:32:32-p271:32:32-p272:64:64-i64:64-i128:128-f80:128-n8:16:32:64-S128"
target triple = "x86_64-pc-linux-gnu"

%struct.Abc_Ntk_t_ = type { i32, i32, ptr, ptr, ptr, ptr, ptr, ptr, ptr, ptr, ptr, ptr, ptr, [11 x i32], i32, i32, i32, i32, ptr, i32, ptr, ptr, i32, i32, i32, double, i32, %struct.Vec_Int_t_, ptr, ptr, ptr, ptr, ptr, float, i32, ptr, ptr, ptr, ptr, ptr, ptr, ptr, ptr, ptr, ptr, ptr, ptr, ptr, ptr, ptr, ptr, ptr, ptr, ptr, ptr, ptr, ptr }
%struct.Vec_Int_t_ = type { i32, i32, ptr }
%struct.Vec_Ptr_t_ = type { i32, i32, ptr }
%struct.Abc_Obj_t_ = type { ptr, ptr, i32, i32, %struct.Vec_Int_t_, %struct.Vec_Int_t_, %union.anon, %union.anon.0 }
%union.anon = type { ptr }
%union.anon.0 = type { ptr }

@stdout = external global ptr, align 8
@.str.23 = private unnamed_addr constant [3 x i8] c"ex\00", align 1
@.str.25 = private unnamed_addr constant [52 x i8] c"Abc_NtkCreateWithNode(): Network check has failed.\0A\00", align 1
@.str.26 = private unnamed_addr constant [4 x i8] c"F%d\00", align 1

; Function Attrs: inlinehint nounwind uwtable
define internal void @Vec_PtrGrow(ptr noundef %0, i32 noundef %1) #4 {
  %3 = alloca ptr, align 8
  %4 = alloca i32, align 4
  store ptr %0, ptr %3, align 8, !tbaa !42
  store i32 %1, ptr %4, align 4, !tbaa !3
  %5 = load ptr, ptr %3, align 8, !tbaa !42
  %6 = getelementptr inbounds nuw %struct.Vec_Ptr_t_, ptr %5, i32 0, i32 0
  %7 = load i32, ptr %6, align 8, !tbaa !45
  %8 = load i32, ptr %4, align 4, !tbaa !3
  %9 = icmp sge i32 %7, %8
  br i1 %9, label %10, label %11

10:                                               ; preds = %2
  br label %36

11:                                               ; preds = %2
  %12 = load ptr, ptr %3, align 8, !tbaa !42
  %13 = getelementptr inbounds nuw %struct.Vec_Ptr_t_, ptr %12, i32 0, i32 2
  %14 = load ptr, ptr %13, align 8, !tbaa !46
  %15 = icmp ne ptr %14, null
  br i1 %15, label %16, label %24

16:                                               ; preds = %11
  %17 = load ptr, ptr %3, align 8, !tbaa !42
  %18 = getelementptr inbounds nuw %struct.Vec_Ptr_t_, ptr %17, i32 0, i32 2
  %19 = load ptr, ptr %18, align 8, !tbaa !46
  %20 = load i32, ptr %4, align 4, !tbaa !3
  %21 = sext i32 %20 to i64
  %22 = mul i64 8, %21
  %23 = call ptr @realloc(ptr noundef %19, i64 noundef %22) #14
  br label %29

24:                                               ; preds = %11
  %25 = load i32, ptr %4, align 4, !tbaa !3
  %26 = sext i32 %25 to i64
  %27 = mul i64 8, %26
  %28 = call noalias ptr @malloc(i64 noundef %27) #12
  br label %29

29:                                               ; preds = %24, %16
  %30 = phi ptr [ %23, %16 ], [ %28, %24 ]
  %31 = load ptr, ptr %3, align 8, !tbaa !42
  %32 = getelementptr inbounds nuw %struct.Vec_Ptr_t_, ptr %31, i32 0, i32 2
  store ptr %30, ptr %32, align 8, !tbaa !46
  %33 = load i32, ptr %4, align 4, !tbaa !3
  %34 = load ptr, ptr %3, align 8, !tbaa !42
  %35 = getelementptr inbounds nuw %struct.Vec_Ptr_t_, ptr %34, i32 0, i32 0
  store i32 %33, ptr %35, align 8, !tbaa !45
  br label %36

36:                                               ; preds = %29, %10
  ret void
}

; Function Attrs: inlinehint nounwind uwtable
define internal ptr @Abc_NtkCreatePo(ptr noundef %0) #4 {
  %2 = alloca ptr, align 8
  store ptr %0, ptr %2, align 8, !tbaa !7
  %3 = load ptr, ptr %2, align 8, !tbaa !7
  %4 = call ptr @Abc_NtkCreateObj(ptr noundef %3, i32 noundef 3)
  ret ptr %4
}

; Function Attrs: inlinehint nounwind uwtable
define internal ptr @Abc_NtkPi(ptr noundef %0, i32 noundef %1) #4 {
  %3 = alloca ptr, align 8
  %4 = alloca i32, align 4
  store ptr %0, ptr %3, align 8, !tbaa !7
  store i32 %1, ptr %4, align 4, !tbaa !3
  %5 = load ptr, ptr %3, align 8, !tbaa !7
  %6 = getelementptr inbounds nuw %struct.Abc_Ntk_t_, ptr %5, i32 0, i32 6
  %7 = load ptr, ptr %6, align 8, !tbaa !29
  %8 = load i32, ptr %4, align 4, !tbaa !3
  %9 = call ptr @Vec_PtrEntry(ptr noundef %7, i32 noundef %8)
  ret ptr %9
}

; Function Attrs: inlinehint nounwind uwtable
define internal i32 @Abc_NtkPiNum(ptr noundef %0) #4 {
  %2 = alloca ptr, align 8
  store ptr %0, ptr %2, align 8, !tbaa !7
  %3 = load ptr, ptr %2, align 8, !tbaa !7
  %4 = getelementptr inbounds nuw %struct.Abc_Ntk_t_, ptr %3, i32 0, i32 6
  %5 = load ptr, ptr %4, align 8, !tbaa !29
  %6 = call i32 @Vec_PtrSize(ptr noundef %5)
  ret i32 %6
}

; Function Attrs: inlinehint nounwind uwtable
define internal ptr @Abc_NtkCreateNode(ptr noundef %0) #4 {
  %2 = alloca ptr, align 8
  store ptr %0, ptr %2, align 8, !tbaa !7
  %3 = load ptr, ptr %2, align 8, !tbaa !7
  %4 = call ptr @Abc_NtkCreateObj(ptr noundef %3, i32 noundef 7)
  ret ptr %4
}

; Function Attrs: inlinehint nounwind uwtable
define internal i32 @Vec_PtrSize(ptr noundef %0) #4 {
  %2 = alloca ptr, align 8
  store ptr %0, ptr %2, align 8, !tbaa !42
  %3 = load ptr, ptr %2, align 8, !tbaa !42
  %4 = getelementptr inbounds nuw %struct.Vec_Ptr_t_, ptr %3, i32 0, i32 1
  %5 = load i32, ptr %4, align 4, !tbaa !43
  ret i32 %5
}

; Function Attrs: inlinehint nounwind uwtable
define internal ptr @Abc_NtkCreatePi(ptr noundef %0) #4 {
  %2 = alloca ptr, align 8
  store ptr %0, ptr %2, align 8, !tbaa !7
  %3 = load ptr, ptr %2, align 8, !tbaa !7
  %4 = call ptr @Abc_NtkCreateObj(ptr noundef %3, i32 noundef 2)
  ret ptr %4
}

; Function Attrs: inlinehint nounwind uwtable
define internal void @Vec_PtrPush(ptr noundef %0, ptr noundef %1) #4 {
  %3 = alloca ptr, align 8
  %4 = alloca ptr, align 8
  store ptr %0, ptr %3, align 8, !tbaa !42
  store ptr %1, ptr %4, align 8, !tbaa !47
  %5 = load ptr, ptr %3, align 8, !tbaa !42
  %6 = getelementptr inbounds nuw %struct.Vec_Ptr_t_, ptr %5, i32 0, i32 1
  %7 = load i32, ptr %6, align 4, !tbaa !43
  %8 = load ptr, ptr %3, align 8, !tbaa !42
  %9 = getelementptr inbounds nuw %struct.Vec_Ptr_t_, ptr %8, i32 0, i32 0
  %10 = load i32, ptr %9, align 8, !tbaa !45
  %11 = icmp eq i32 %7, %10
  br i1 %11, label %12, label %26

12:                                               ; preds = %2
  %13 = load ptr, ptr %3, align 8, !tbaa !42
  %14 = getelementptr inbounds nuw %struct.Vec_Ptr_t_, ptr %13, i32 0, i32 0
  %15 = load i32, ptr %14, align 8, !tbaa !45
  %16 = icmp slt i32 %15, 16
  br i1 %16, label %17, label %19

17:                                               ; preds = %12
  %18 = load ptr, ptr %3, align 8, !tbaa !42
  call void @Vec_PtrGrow(ptr noundef %18, i32 noundef 16)
  br label %25

19:                                               ; preds = %12
  %20 = load ptr, ptr %3, align 8, !tbaa !42
  %21 = load ptr, ptr %3, align 8, !tbaa !42
  %22 = getelementptr inbounds nuw %struct.Vec_Ptr_t_, ptr %21, i32 0, i32 0
  %23 = load i32, ptr %22, align 8, !tbaa !45
  %24 = mul nsw i32 2, %23
  call void @Vec_PtrGrow(ptr noundef %20, i32 noundef %24)
  br label %25

25:                                               ; preds = %19, %17
  br label %26

26:                                               ; preds = %25, %2
  %27 = load ptr, ptr %4, align 8, !tbaa !47
  %28 = load ptr, ptr %3, align 8, !tbaa !42
  %29 = getelementptr inbounds nuw %struct.Vec_Ptr_t_, ptr %28, i32 0, i32 2
  %30 = load ptr, ptr %29, align 8, !tbaa !46
  %31 = load ptr, ptr %3, align 8, !tbaa !42
  %32 = getelementptr inbounds nuw %struct.Vec_Ptr_t_, ptr %31, i32 0, i32 1
  %33 = load i32, ptr %32, align 4, !tbaa !43
  %34 = add nsw i32 %33, 1
  store i32 %34, ptr %32, align 4, !tbaa !43
  %35 = sext i32 %33 to i64
  %36 = getelementptr inbounds ptr, ptr %30, i64 %35
  store ptr %27, ptr %36, align 8, !tbaa !47
  ret void
}

; Function Attrs: inlinehint nounwind uwtable
define internal ptr @Vec_PtrEntry(ptr noundef %0, i32 noundef %1) #4 {
  %3 = alloca ptr, align 8
  %4 = alloca i32, align 4
  store ptr %0, ptr %3, align 8, !tbaa !42
  store i32 %1, ptr %4, align 4, !tbaa !3
  %5 = load ptr, ptr %3, align 8, !tbaa !42
  %6 = getelementptr inbounds nuw %struct.Vec_Ptr_t_, ptr %5, i32 0, i32 2
  %7 = load ptr, ptr %6, align 8, !tbaa !46
  %8 = load i32, ptr %4, align 4, !tbaa !3
  %9 = sext i32 %8 to i64
  %10 = getelementptr inbounds ptr, ptr %7, i64 %9
  %11 = load ptr, ptr %10, align 8, !tbaa !47
  ret ptr %11
}

; Function Attrs: nounwind uwtable
define ptr @Abc_NtkCreateWithNodes(ptr noundef %0) #0 {
  %2 = alloca ptr, align 8
  %3 = alloca ptr, align 8
  %4 = alloca ptr, align 8
  %5 = alloca ptr, align 8
  %6 = alloca ptr, align 8
  %7 = alloca ptr, align 8
  %8 = alloca i32, align 4
  %9 = alloca i32, align 4
  %10 = alloca i32, align 4
  %11 = alloca [100 x i8], align 16
  %12 = alloca ptr, align 8
  store ptr %0, ptr %2, align 8, !tbaa !42
  call void @llvm.lifetime.start.p0(i64 8, ptr %3) #11
  call void @llvm.lifetime.start.p0(i64 8, ptr %4) #11
  call void @llvm.lifetime.start.p0(i64 8, ptr %5) #11
  call void @llvm.lifetime.start.p0(i64 8, ptr %6) #11
  call void @llvm.lifetime.start.p0(i64 8, ptr %7) #11
  call void @llvm.lifetime.start.p0(i64 4, ptr %8) #11
  call void @llvm.lifetime.start.p0(i64 4, ptr %9) #11
  call void @llvm.lifetime.start.p0(i64 4, ptr %10) #11
  call void @llvm.lifetime.start.p0(i64 100, ptr %11) #11
  call void @llvm.lifetime.start.p0(i64 8, ptr %12) #11
  %13 = load ptr, ptr %2, align 8, !tbaa !42
  %14 = call ptr @Vec_PtrEntry(ptr noundef %13, i32 noundef 0)
  store ptr %14, ptr %12, align 8, !tbaa !86
  %15 = call ptr @Abc_NtkAlloc(i32 noundef 2, i32 noundef 1, i32 noundef 1)
  store ptr %15, ptr %3, align 8, !tbaa !7
  %16 = call ptr @Extra_UtilStrsav(ptr noundef @.str.23)
  %17 = load ptr, ptr %3, align 8, !tbaa !7
  %18 = getelementptr inbounds nuw %struct.Abc_Ntk_t_, ptr %17, i32 0, i32 2
  store ptr %16, ptr %18, align 8, !tbaa !50
  %19 = load ptr, ptr %3, align 8, !tbaa !7
  %20 = getelementptr inbounds nuw %struct.Abc_Ntk_t_, ptr %19, i32 0, i32 5
  %21 = load ptr, ptr %20, align 8, !tbaa !27
  call void @Vec_PtrPush(ptr noundef %21, ptr noundef null)
  %22 = load ptr, ptr %12, align 8, !tbaa !86
  %23 = call i32 @Abc_SopGetVarNum(ptr noundef %22)
  store i32 %23, ptr %10, align 4, !tbaa !3
  %24 = load i32, ptr %10, align 4, !tbaa !3
  %25 = call ptr @Abc_NodeGetFakeNames(i32 noundef %24)
  store ptr %25, ptr %7, align 8, !tbaa !42
  store i32 0, ptr %8, align 4, !tbaa !3
  br label %26

26:                                               ; preds = %37, %1
  %27 = load i32, ptr %8, align 4, !tbaa !3
  %28 = load i32, ptr %10, align 4, !tbaa !3
  %29 = icmp slt i32 %27, %28
  br i1 %29, label %30, label %40

30:                                               ; preds = %26
  %31 = load ptr, ptr %3, align 8, !tbaa !7
  %32 = call ptr @Abc_NtkCreatePi(ptr noundef %31)
  %33 = load ptr, ptr %7, align 8, !tbaa !42
  %34 = load i32, ptr %8, align 4, !tbaa !3
  %35 = call ptr @Vec_PtrEntry(ptr noundef %33, i32 noundef %34)
  %36 = call ptr @Abc_ObjAssignName(ptr noundef %32, ptr noundef %35, ptr noundef null)
  br label %37

37:                                               ; preds = %30
  %38 = load i32, ptr %8, align 4, !tbaa !3
  %39 = add nsw i32 %38, 1
  store i32 %39, ptr %8, align 4, !tbaa !3
  br label %26, !llvm.loop !185

40:                                               ; preds = %26
  %41 = load ptr, ptr %7, align 8, !tbaa !42
  call void @Abc_NodeFreeNames(ptr noundef %41)
  store i32 0, ptr %8, align 4, !tbaa !3
  br label %42

42:                                               ; preds = %91, %40
  %43 = load i32, ptr %8, align 4, !tbaa !3
  %44 = load ptr, ptr %2, align 8, !tbaa !42
  %45 = call i32 @Vec_PtrSize(ptr noundef %44)
  %46 = icmp slt i32 %43, %45
  br i1 %46, label %47, label %51

47:                                               ; preds = %42
  %48 = load ptr, ptr %2, align 8, !tbaa !42
  %49 = load i32, ptr %8, align 4, !tbaa !3
  %50 = call ptr @Vec_PtrEntry(ptr noundef %48, i32 noundef %49)
  store ptr %50, ptr %12, align 8, !tbaa !86
  br label %51

51:                                               ; preds = %47, %42
  %52 = phi i1 [ false, %42 ], [ true, %47 ]
  br i1 %52, label %53, label %94

53:                                               ; preds = %51
  %54 = load ptr, ptr %3, align 8, !tbaa !7
  %55 = call ptr @Abc_NtkCreateNode(ptr noundef %54)
  store ptr %55, ptr %5, align 8, !tbaa !53
  store i32 0, ptr %9, align 4, !tbaa !3
  br label %56

56:                                               ; preds = %70, %53
  %57 = load i32, ptr %9, align 4, !tbaa !3
  %58 = load ptr, ptr %3, align 8, !tbaa !7
  %59 = call i32 @Abc_NtkPiNum(ptr noundef %58)
  %60 = icmp slt i32 %57, %59
  br i1 %60, label %61, label %65

61:                                               ; preds = %56
  %62 = load ptr, ptr %3, align 8, !tbaa !7
  %63 = load i32, ptr %9, align 4, !tbaa !3
  %64 = call ptr @Abc_NtkPi(ptr noundef %62, i32 noundef %63)
  store ptr %64, ptr %4, align 8, !tbaa !53
  br label %65

65:                                               ; preds = %61, %56
  %66 = phi i1 [ false, %56 ], [ true, %61 ]
  br i1 %66, label %67, label %73

67:                                               ; preds = %65
  %68 = load ptr, ptr %5, align 8, !tbaa !53
  %69 = load ptr, ptr %4, align 8, !tbaa !53
  call void @Abc_ObjAddFanin(ptr noundef %68, ptr noundef %69)
  br label %70

70:                                               ; preds = %67
  %71 = load i32, ptr %9, align 4, !tbaa !3
  %72 = add nsw i32 %71, 1
  store i32 %72, ptr %9, align 4, !tbaa !3
  br label %56, !llvm.loop !186

73:                                               ; preds = %65
  %74 = load ptr, ptr %3, align 8, !tbaa !7
  %75 = getelementptr inbounds nuw %struct.Abc_Ntk_t_, ptr %74, i32 0, i32 30
  %76 = load ptr, ptr %75, align 8, !tbaa !38
  %77 = load ptr, ptr %12, align 8, !tbaa !86
  %78 = call ptr @Abc_SopRegister(ptr noundef %76, ptr noundef %77)
  %79 = load ptr, ptr %5, align 8, !tbaa !53
  %80 = getelementptr inbounds nuw %struct.Abc_Obj_t_, ptr %79, i32 0, i32 6
  store ptr %78, ptr %80, align 8, !tbaa !52
  %81 = load ptr, ptr %3, align 8, !tbaa !7
  %82 = call ptr @Abc_NtkCreatePo(ptr noundef %81)
  store ptr %82, ptr %6, align 8, !tbaa !53
  %83 = load ptr, ptr %6, align 8, !tbaa !53
  %84 = load ptr, ptr %5, align 8, !tbaa !53
  call void @Abc_ObjAddFanin(ptr noundef %83, ptr noundef %84)
  %85 = getelementptr inbounds [100 x i8], ptr %11, i64 0, i64 0
  %86 = load i32, ptr %8, align 4, !tbaa !3
  %87 = call i32 (ptr, ptr, ...) @sprintf(ptr noundef %85, ptr noundef @.str.26, i32 noundef %86) #11
  %88 = load ptr, ptr %6, align 8, !tbaa !53
  %89 = getelementptr inbounds [100 x i8], ptr %11, i64 0, i64 0
  %90 = call ptr @Abc_ObjAssignName(ptr noundef %88, ptr noundef %89, ptr noundef null)
  br label %91

91:                                               ; preds = %73
  %92 = load i32, ptr %8, align 4, !tbaa !3
  %93 = add nsw i32 %92, 1
  store i32 %93, ptr %8, align 4, !tbaa !3
  br label %42, !llvm.loop !187

94:                                               ; preds = %51
  %95 = load ptr, ptr %3, align 8, !tbaa !7
  %96 = call i32 @Abc_NtkCheck(ptr noundef %95)
  %97 = icmp ne i32 %96, 0
  br i1 %97, label %101, label %98

98:                                               ; preds = %94
  %99 = load ptr, ptr @stdout, align 8, !tbaa !105
  %100 = call i32 (ptr, ptr, ...) @fprintf(ptr noundef %99, ptr noundef @.str.25) #11
  br label %101

101:                                              ; preds = %98, %94
  %102 = load ptr, ptr %3, align 8, !tbaa !7
  call void @llvm.lifetime.end.p0(i64 8, ptr %12) #11
  call void @llvm.lifetime.end.p0(i64 100, ptr %11) #11
  call void @llvm.lifetime.end.p0(i64 4, ptr %10) #11
  call void @llvm.lifetime.end.p0(i64 4, ptr %9) #11
  call void @llvm.lifetime.end.p0(i64 4, ptr %8) #11
  call void @llvm.lifetime.end.p0(i64 8, ptr %7) #11
  call void @llvm.lifetime.end.p0(i64 8, ptr %6) #11
  call void @llvm.lifetime.end.p0(i64 8, ptr %5) #11
  call void @llvm.lifetime.end.p0(i64 8, ptr %4) #11
  call void @llvm.lifetime.end.p0(i64 8, ptr %3) #11
  ret ptr %102
}