; Function Attrs: nounwind uwtable
define noundef ptr @Abc_NtkCreateWithNodes(ptr noundef readonly captures(none) %0) local_unnamed_addr #0 {
  %2 = alloca [100 x i8], align 16
  call void @llvm.lifetime.start.p0(i64 100, ptr nonnull %2) #20
  %3 = getelementptr i8, ptr %0, i64 8
  %.val40 = load ptr, ptr %3, align 8, !tbaa !28
  %4 = load ptr, ptr %.val40, align 8, !tbaa !40
  %5 = tail call ptr @Abc_NtkAlloc(i32 noundef 2, i32 noundef 1, i32 noundef 1)
  %6 = tail call ptr @Extra_UtilStrsav(ptr noundef nonnull @.str.23) #20
  %7 = getelementptr inbounds nuw i8, ptr %5, i64 8
  store ptr %6, ptr %7, align 8, !tbaa !47
  %8 = getelementptr inbounds nuw i8, ptr %5, i64 32
  %9 = load ptr, ptr %8, align 8, !tbaa !29
  %10 = getelementptr inbounds nuw i8, ptr %9, i64 4
  %11 = load i32, ptr %10, align 4, !tbaa !25
  %12 = load i32, ptr %9, align 8, !tbaa !27
  %13 = icmp eq i32 %11, %12
  br i1 %13, label %14, label %.Vec_PtrGrow.exit11_crit_edge.i

.Vec_PtrGrow.exit11_crit_edge.i:                  ; preds = %1
  %.phi.trans.insert.i = getelementptr inbounds nuw i8, ptr %9, i64 8
  %.pre.i = load ptr, ptr %.phi.trans.insert.i, align 8, !tbaa !28
  br label %Vec_PtrPush.exit

14:                                               ; preds = %1
  %15 = icmp slt i32 %11, 16
  br i1 %15, label %16, label %24

16:                                               ; preds = %14
  %17 = getelementptr inbounds nuw i8, ptr %9, i64 8
  %18 = load ptr, ptr %17, align 8, !tbaa !28
  %.not9.i.i = icmp eq ptr %18, null
  br i1 %.not9.i.i, label %21, label %19

19:                                               ; preds = %16
  %20 = tail call dereferenceable_or_null(128) ptr @realloc(ptr noundef nonnull %18, i64 noundef 128) #21
  br label %Vec_PtrGrow.exit.i

21:                                               ; preds = %16
  %22 = tail call noalias dereferenceable_or_null(128) ptr @malloc(i64 noundef 128) #19
  br label %Vec_PtrGrow.exit.i

Vec_PtrGrow.exit.i:                               ; preds = %21, %19
  %23 = phi ptr [ %20, %19 ], [ %22, %21 ]
  store ptr %23, ptr %17, align 8, !tbaa !28
  store i32 16, ptr %9, align 8, !tbaa !27
  br label %Vec_PtrPush.exit

24:                                               ; preds = %14
  %25 = shl nuw nsw i32 %11, 1
  %26 = getelementptr inbounds nuw i8, ptr %9, i64 8
  %27 = load ptr, ptr %26, align 8, !tbaa !28
  %.not9.i10.i = icmp eq ptr %27, null
  %28 = zext nneg i32 %25 to i64
  %29 = shl nuw nsw i64 %28, 3
  br i1 %.not9.i10.i, label %32, label %30

30:                                               ; preds = %24
  %31 = tail call ptr @realloc(ptr noundef nonnull %27, i64 noundef %29) #21
  br label %34

32:                                               ; preds = %24
  %33 = tail call noalias ptr @malloc(i64 noundef %29) #19
  br label %34

34:                                               ; preds = %32, %30
  %35 = phi ptr [ %31, %30 ], [ %33, %32 ]
  store ptr %35, ptr %26, align 8, !tbaa !28
  store i32 %25, ptr %9, align 8, !tbaa !27
  br label %Vec_PtrPush.exit

Vec_PtrPush.exit:                                 ; preds = %.Vec_PtrGrow.exit11_crit_edge.i, %Vec_PtrGrow.exit.i, %34
  %36 = phi ptr [ %.pre.i, %.Vec_PtrGrow.exit11_crit_edge.i ], [ %35, %34 ], [ %23, %Vec_PtrGrow.exit.i ]
  %37 = load i32, ptr %10, align 4, !tbaa !25
  %38 = add nsw i32 %37, 1
  store i32 %38, ptr %10, align 4, !tbaa !25
  %39 = sext i32 %37 to i64
  %40 = getelementptr inbounds ptr, ptr %36, i64 %39
  store ptr null, ptr %40, align 8, !tbaa !40
  %41 = tail call i32 @Abc_SopGetVarNum(ptr noundef %4) #20
  %42 = tail call ptr @Abc_NodeGetFakeNames(i32 noundef %41) #20
  %43 = icmp sgt i32 %41, 0
  br i1 %43, label %.lr.ph, label %._crit_edge

.lr.ph:                                           ; preds = %Vec_PtrPush.exit
  %44 = getelementptr i8, ptr %42, i64 8
  %wide.trip.count = zext nneg i32 %41 to i64
  br label %45

45:                                               ; preds = %.lr.ph, %45
  %indvars.iv = phi i64 [ 0, %.lr.ph ], [ %indvars.iv.next, %45 ]
  %46 = tail call ptr @Abc_NtkCreateObj(ptr noundef %5, i32 noundef 2) #20
  %.val39 = load ptr, ptr %44, align 8, !tbaa !28
  %47 = getelementptr inbounds nuw ptr, ptr %.val39, i64 %indvars.iv
  %48 = load ptr, ptr %47, align 8, !tbaa !40
  %49 = tail call ptr @Abc_ObjAssignName(ptr noundef %46, ptr noundef %48, ptr noundef null) #20
  %indvars.iv.next = add nuw nsw i64 %indvars.iv, 1
  %exitcond.not = icmp eq i64 %indvars.iv.next, %wide.trip.count
  br i1 %exitcond.not, label %._crit_edge, label %45, !llvm.loop !189

._crit_edge:                                      ; preds = %45, %Vec_PtrPush.exit
  tail call void @Abc_NodeFreeNames(ptr noundef %42) #20
  %50 = getelementptr i8, ptr %0, i64 4
  %.val49 = load i32, ptr %50, align 4, !tbaa !25
  %51 = icmp sgt i32 %.val49, 0
  br i1 %51, label %.lr.ph52, label %.critedge

.lr.ph52:                                         ; preds = %._crit_edge
  %52 = getelementptr i8, ptr %5, i64 40
  %53 = getelementptr inbounds nuw i8, ptr %5, i64 256
  br label %54

54:                                               ; preds = %.lr.ph52, %.critedge2
  %indvars.iv57 = phi i64 [ 0, %.lr.ph52 ], [ %indvars.iv.next58, %.critedge2 ]
  %.val38 = load ptr, ptr %3, align 8, !tbaa !28
  %55 = getelementptr inbounds nuw ptr, ptr %.val38, i64 %indvars.iv57
  %56 = load ptr, ptr %55, align 8, !tbaa !40
  %57 = call ptr @Abc_NtkCreateObj(ptr noundef %5, i32 noundef 7) #20
  %.val3743 = load ptr, ptr %52, align 8, !tbaa !31
  %58 = getelementptr i8, ptr %.val3743, i64 4
  %.val37.val44 = load i32, ptr %58, align 4, !tbaa !25
  %59 = icmp sgt i32 %.val37.val44, 0
  br i1 %59, label %.lr.ph48, label %.critedge2

.lr.ph48:                                         ; preds = %54, %.lr.ph48
  %indvars.iv54 = phi i64 [ %indvars.iv.next55, %.lr.ph48 ], [ 0, %54 ]
  %.val3746 = phi ptr [ %.val37, %.lr.ph48 ], [ %.val3743, %54 ]
  %60 = getelementptr i8, ptr %.val3746, i64 8
  %.val41.val = load ptr, ptr %60, align 8, !tbaa !28
  %61 = getelementptr inbounds nuw ptr, ptr %.val41.val, i64 %indvars.iv54
  %62 = load ptr, ptr %61, align 8, !tbaa !40
  call void @Abc_ObjAddFanin(ptr noundef %57, ptr noundef %62) #20
  %indvars.iv.next55 = add nuw nsw i64 %indvars.iv54, 1
  %.val37 = load ptr, ptr %52, align 8, !tbaa !31
  %63 = getelementptr i8, ptr %.val37, i64 4
  %.val37.val = load i32, ptr %63, align 4, !tbaa !25
  %64 = sext i32 %.val37.val to i64
  %65 = icmp slt i64 %indvars.iv.next55, %64
  br i1 %65, label %.lr.ph48, label %.critedge2, !llvm.loop !190

.critedge2:                                       ; preds = %.lr.ph48, %54
  %66 = load ptr, ptr %53, align 8, !tbaa !41
  %67 = call ptr @Abc_SopRegister(ptr noundef %66, ptr noundef %56) #20
  %68 = getelementptr inbounds nuw i8, ptr %57, i64 56
  store ptr %67, ptr %68, align 8, !tbaa !49
  %69 = call ptr @Abc_NtkCreateObj(ptr noundef nonnull %5, i32 noundef 3) #20
  call void @Abc_ObjAddFanin(ptr noundef %69, ptr noundef %57) #20
  %70 = trunc nuw nsw i64 %indvars.iv57 to i32
  %71 = call i32 (ptr, ptr, ...) @sprintf(ptr noundef nonnull dereferenceable(1) %2, ptr noundef nonnull dereferenceable(1) @.str.26, i32 noundef %70) #20
  %72 = call ptr @Abc_ObjAssignName(ptr noundef %69, ptr noundef nonnull %2, ptr noundef null) #20
  %indvars.iv.next58 = add nuw nsw i64 %indvars.iv57, 1
  %.val = load i32, ptr %50, align 4, !tbaa !25
  %73 = sext i32 %.val to i64
  %74 = icmp slt i64 %indvars.iv.next58, %73
  br i1 %74, label %54, label %.critedge, !llvm.loop !191

.critedge:                                        ; preds = %.critedge2, %._crit_edge
  %75 = call i32 @Abc_NtkCheck(ptr noundef %5) #20
  %.not = icmp eq i32 %75, 0
  br i1 %.not, label %76, label %79

76:                                               ; preds = %.critedge
  %77 = load ptr, ptr @stdout, align 8, !tbaa !100
  %78 = call i64 @fwrite(ptr nonnull @.str.25, i64 51, i64 1, ptr %77)
  br label %79

79:                                               ; preds = %76, %.critedge
  call void @llvm.lifetime.end.p0(i64 100, ptr nonnull %2) #20
  ret ptr %5
}